target datalayout = "e-m:e-p270:32:32-p271:32:32-p272:64:64-i64:64-i128:128-f80:128-n8:16:32:64-S128"
target triple = "x86_64-unknown-linux-gnu"

%struct._GSList = type { ptr, ptr }

@.str.9 = private unnamed_addr constant [4 x i8] c"%s@\00", align 1
@.str.10 = private unnamed_addr constant [29 x i8] c"../qemu/system/device_tree.c\00", align 1
@__func__.qemu_fdt_node_unit_path = private unnamed_addr constant [24 x i8] c"qemu_fdt_node_unit_path\00", align 1
@.str.11 = private unnamed_addr constant [43 x i8] c"%s: abort parsing dt for %s node units: %s\00", align 1

; Function Attrs: nounwind sspstrong uwtable
define dso_local ptr @qemu_fdt_node_unit_path(ptr noundef %fdt, ptr noundef %name, ptr noundef %errp) #0 {
entry:
  %retval = alloca ptr, align 8
  %fdt.addr = alloca ptr, align 8
  %name.addr = alloca ptr, align 8
  %errp.addr = alloca ptr, align 8
  %prefix = alloca ptr, align 8
  %path_len = alloca i32, align 4
  %n = alloca i32, align 4
  %path_list = alloca ptr, align 8
  %iter = alloca ptr, align 8
  %iter_name = alloca ptr, align 8
  %offset = alloca i32, align 4
  %len = alloca i32, align 4
  %ret = alloca i32, align 4
  %path_array = alloca ptr, align 8
  %path = alloca ptr, align 8
  store ptr %fdt, ptr %fdt.addr, align 8
  store ptr %name, ptr %name.addr, align 8
  store ptr %errp, ptr %errp.addr, align 8
  %0 = load ptr, ptr %name.addr, align 8
  %call = call noalias ptr (ptr, ...) @g_strdup_printf(ptr noundef @.str.9, ptr noundef %0)
  store ptr %call, ptr %prefix, align 8
  store i32 16, ptr %path_len, align 4
  store i32 0, ptr %n, align 4
  store ptr null, ptr %path_list, align 8
  %1 = load ptr, ptr %fdt.addr, align 8
  %call1 = call i32 @fdt_next_node(ptr noundef %1, i32 noundef -1, ptr noundef null)
  store i32 %call1, ptr %offset, align 4
  br label %while.cond

while.cond:                                       ; preds = %if.end17, %entry
  %2 = load i32, ptr %offset, align 4
  %cmp = icmp sge i32 %2, 0
  br i1 %cmp, label %while.body, label %while.end19

while.body:                                       ; preds = %while.cond
  %3 = load ptr, ptr %fdt.addr, align 8
  %4 = load i32, ptr %offset, align 4
  %call2 = call ptr @fdt_get_name(ptr noundef %3, i32 noundef %4, ptr noundef %len)
  store ptr %call2, ptr %iter_name, align 8
  %5 = load ptr, ptr %iter_name, align 8
  %tobool = icmp ne ptr %5, null
  br i1 %tobool, label %if.end, label %if.then

if.then:                                          ; preds = %while.body
  %6 = load i32, ptr %len, align 4
  store i32 %6, ptr %offset, align 4
  br label %while.end19

if.end:                                           ; preds = %while.body
  %7 = load ptr, ptr %iter_name, align 8
  %8 = load ptr, ptr %name.addr, align 8
  %call3 = call i32 @strcmp(ptr noundef %7, ptr noundef %8) #11
  %tobool4 = icmp ne i32 %call3, 0
  br i1 %tobool4, label %lor.lhs.false, label %if.then7

lor.lhs.false:                                    ; preds = %if.end
  %9 = load ptr, ptr %iter_name, align 8
  %10 = load ptr, ptr %prefix, align 8
  %call5 = call i32 @g_str_has_prefix(ptr noundef %9, ptr noundef %10)
  %tobool6 = icmp ne i32 %call5, 0
  br i1 %tobool6, label %if.then7, label %if.end17

if.then7:                                         ; preds = %lor.lhs.false, %if.end
  %11 = load i32, ptr %path_len, align 4
  %conv = zext i32 %11 to i64
  %call8 = call noalias ptr @g_malloc(i64 noundef %conv) #9
  store ptr %call8, ptr %path, align 8
  br label %while.cond9

while.cond9:                                      ; preds = %while.body13, %if.then7
  %12 = load ptr, ptr %fdt.addr, align 8
  %13 = load i32, ptr %offset, align 4
  %14 = load ptr, ptr %path, align 8
  %15 = load i32, ptr %path_len, align 4
  %call10 = call i32 @fdt_get_path(ptr noundef %12, i32 noundef %13, ptr noundef %14, i32 noundef %15)
  store i32 %call10, ptr %ret, align 4
  %cmp11 = icmp eq i32 %call10, -3
  br i1 %cmp11, label %while.body13, label %while.end

while.body13:                                     ; preds = %while.cond9
  %16 = load i32, ptr %path_len, align 4
  %add = add i32 %16, 16
  store i32 %add, ptr %path_len, align 4
  %17 = load ptr, ptr %path, align 8
  %18 = load i32, ptr %path_len, align 4
  %conv14 = zext i32 %18 to i64
  %call15 = call ptr @g_realloc(ptr noundef %17, i64 noundef %conv14)
  store ptr %call15, ptr %path, align 8
  br label %while.cond9, !llvm.loop !7

while.end:                                        ; preds = %while.cond9
  %19 = load ptr, ptr %path_list, align 8
  %20 = load ptr, ptr %path, align 8
  %call16 = call ptr @g_slist_prepend(ptr noundef %19, ptr noundef %20)
  store ptr %call16, ptr %path_list, align 8
  %21 = load i32, ptr %n, align 4
  %inc = add i32 %21, 1
  store i32 %inc, ptr %n, align 4
  br label %if.end17

if.end17:                                         ; preds = %while.end, %lor.lhs.false
  %22 = load ptr, ptr %fdt.addr, align 8
  %23 = load i32, ptr %offset, align 4
  %call18 = call i32 @fdt_next_node(ptr noundef %22, i32 noundef %23, ptr noundef null)
  store i32 %call18, ptr %offset, align 4
  br label %while.cond, !llvm.loop !8

while.end19:                                      ; preds = %if.then, %while.cond
  %24 = load ptr, ptr %prefix, align 8
  call void @g_free(ptr noundef %24)
  %25 = load i32, ptr %offset, align 4
  %cmp20 = icmp slt i32 %25, 0
  br i1 %cmp20, label %land.lhs.true, label %if.end27

land.lhs.true:                                    ; preds = %while.end19
  %26 = load i32, ptr %offset, align 4
  %cmp22 = icmp ne i32 %26, -1
  br i1 %cmp22, label %if.then24, label %if.end27

if.then24:                                        ; preds = %land.lhs.true
  %27 = load ptr, ptr %errp.addr, align 8
  %28 = load ptr, ptr %name.addr, align 8
  %29 = load i32, ptr %offset, align 4
  %call25 = call ptr @fdt_strerror(i32 noundef %29)
  call void (ptr, ptr, i32, ptr, ptr, ...) @error_setg_internal(ptr noundef %27, ptr noundef @.str.10, i32 noundef 280, ptr noundef @__func__.qemu_fdt_node_unit_path, ptr noundef @.str.11, ptr noundef @__func__.qemu_fdt_node_unit_path, ptr noundef %28, ptr noundef %call25)
  %30 = load ptr, ptr %path_list, align 8
  store ptr %30, ptr %iter, align 8
  br label %for.cond

for.cond:                                         ; preds = %for.inc, %if.then24
  %31 = load ptr, ptr %iter, align 8
  %tobool26 = icmp ne ptr %31, null
  br i1 %tobool26, label %for.body, label %for.end

for.body:                                         ; preds = %for.cond
  %32 = load ptr, ptr %iter, align 8
  %data = getelementptr inbounds %struct._GSList, ptr %32, i32 0, i32 0
  %33 = load ptr, ptr %data, align 8
  call void @g_free(ptr noundef %33)
  br label %for.inc

for.inc:                                          ; preds = %for.body
  %34 = load ptr, ptr %iter, align 8
  %next = getelementptr inbounds %struct._GSList, ptr %34, i32 0, i32 1
  %35 = load ptr, ptr %next, align 8
  store ptr %35, ptr %iter, align 8
  br label %for.cond, !llvm.loop !9

for.end:                                          ; preds = %for.cond
  %36 = load ptr, ptr %path_list, align 8
  call void @g_slist_free(ptr noundef %36)
  store ptr null, ptr %retval, align 8
  br label %return

if.end27:                                         ; preds = %land.lhs.true, %while.end19
  %37 = load i32, ptr %n, align 4
  %add28 = add i32 %37, 1
  %conv29 = zext i32 %add28 to i64
  %call30 = call noalias ptr @g_malloc_n(i64 noundef %conv29, i64 noundef 8) #13
  store ptr %call30, ptr %path_array, align 8
  %38 = load ptr, ptr %path_array, align 8
  %39 = load i32, ptr %n, align 4
  %dec = add i32 %39, -1
  store i32 %dec, ptr %n, align 4
  %idxprom = zext i32 %39 to i64
  %arrayidx = getelementptr ptr, ptr %38, i64 %idxprom
  store ptr null, ptr %arrayidx, align 8
  %40 = load ptr, ptr %path_list, align 8
  store ptr %40, ptr %iter, align 8
  br label %for.cond31

for.cond31:                                       ; preds = %for.inc38, %if.end27
  %41 = load ptr, ptr %iter, align 8
  %tobool32 = icmp ne ptr %41, null
  br i1 %tobool32, label %for.body33, label %for.end40

for.body33:                                       ; preds = %for.cond31
  %42 = load ptr, ptr %iter, align 8
  %data34 = getelementptr inbounds %struct._GSList, ptr %42, i32 0, i32 0
  %43 = load ptr, ptr %data34, align 8
  %44 = load ptr, ptr %path_array, align 8
  %45 = load i32, ptr %n, align 4
  %dec35 = add i32 %45, -1
  store i32 %dec35, ptr %n, align 4
  %idxprom36 = zext i32 %45 to i64
  %arrayidx37 = getelementptr ptr, ptr %44, i64 %idxprom36
  store ptr %43, ptr %arrayidx37, align 8
  br label %for.inc38

for.inc38:                                        ; preds = %for.body33
  %46 = load ptr, ptr %iter, align 8
  %next39 = getelementptr inbounds %struct._GSList, ptr %46, i32 0, i32 1
  %47 = load ptr, ptr %next39, align 8
  store ptr %47, ptr %iter, align 8
  br label %for.cond31, !llvm.loop !10

for.end40:                                        ; preds = %for.cond31
  %48 = load ptr, ptr %path_list, align 8
  call void @g_slist_free(ptr noundef %48)
  %49 = load ptr, ptr %path_array, align 8
  store ptr %49, ptr %retval, align 8
  br label %return

return:                                           ; preds = %for.end40, %for.end
  %50 = load ptr, ptr %retval, align 8
  ret ptr %50
}